target datalayout = "e-m:e-p270:32:32-p271:32:32-p272:64:64-i64:64-i128:128-f80:128-n8:16:32:64-S128"
target triple = "x86_64-unknown-linux-gnu"

%struct.QEnumLookup = type { ptr, ptr, i32 }
%struct.QemuEvent = type { i32, i8 }
%struct.QemuThread = type { i64 }
%struct.QemuSemaphore = type { %struct.QemuMutex, %struct.QemuCond, i32 }
%struct.QemuMutex = type { %union.pthread_mutex_t, i8 }
%union.pthread_mutex_t = type { %struct.__pthread_mutex_s }
%struct.__pthread_mutex_s = type { i32, i32, i32, i32, i32, i16, i16, %struct.__pthread_internal_list }
%struct.__pthread_internal_list = type { ptr, ptr }
%struct.QemuCond = type { %union.pthread_cond_t, i8 }
%union.pthread_cond_t = type { %struct.__pthread_cond_s }
%struct.__pthread_cond_s = type { %union.__atomic_wide_counter, %union.__atomic_wide_counter, [2 x i32], [2 x i32], i32, i32, [2 x i32] }
%union.__atomic_wide_counter = type { i64 }
%struct.MigrationState = type { %struct.DeviceState, %struct.QemuThread, ptr, ptr, ptr, ptr, %struct.QemuSemaphore, ptr, %struct.QemuMutex, %struct.QemuSemaphore, i64, double, i64, i64, i64, %struct.MigrationParameters, i32, %struct.anon.2, double, i64, i64, i64, i64, i64, [23 x i8], i64, i32, i8, i8, i8, i8, %struct.QemuSemaphore, %struct.QemuSemaphore, %struct.QemuSemaphore, %struct.QemuEvent, i64, ptr, ptr, %struct.QemuMutex, i8, i8, i8, i8, %struct.QemuSemaphore, i8, i8, i8, i8, ptr, ptr, i8, i8 }
%struct.DeviceState = type { %struct.Object, ptr, ptr, i8, i8, i64, ptr, i32, i8, ptr, %struct.NamedGPIOListHead, %struct.NamedClockListHead, %struct.BusStateHead, i32, i32, i32, %struct.ResettableState, ptr, %struct.MemReentrancyGuard }
%struct.Object = type { ptr, ptr, ptr, i32, ptr }
%struct.NamedGPIOListHead = type { ptr }
%struct.NamedClockListHead = type { ptr }
%struct.BusStateHead = type { ptr }
%struct.ResettableState = type { i32, i8, i8 }
%struct.MemReentrancyGuard = type { i8 }
%struct.MigrationParameters = type { i8, i64, i8, i64, i8, i64, i8, i64, i8, i8, i8, i8, i8, i8, i8, i8, i8, i8, i8, i8, i8, i8, i8, i8, ptr, ptr, ptr, i8, i64, i8, i64, i8, i64, i8, i32, i8, i8, i8, i8, i8, i64, i8, i64, i8, i8, i8, i32, i8, i8, i8, i8, i8, ptr, i8, i64, i8, i64, i8, i32 }
%struct.anon.2 = type { ptr, %struct.QemuThread, i8, %struct.QemuSemaphore, %struct.QemuSemaphore }

@current_migration = internal global ptr null, align 8
@.str.2 = private unnamed_addr constant [30 x i8] c"../qemu/migration/migration.c\00", align 1
@.str.5 = private unnamed_addr constant [18 x i8] c"current_migration\00", align 1
@__PRETTY_FUNCTION__.migrate_get_current = private unnamed_addr constant [42 x i8] c"MigrationState *migrate_get_current(void)\00", align 1
@MigrationStatus_lookup = external constant %struct.QEnumLookup, align 8
@__func__.qmp_migrate_continue = private unnamed_addr constant [21 x i8] c"qmp_migrate_continue\00", align 1
@.str.41 = private unnamed_addr constant [36 x i8] c"Migration not in expected state: %s\00", align 1

; Function Attrs: nounwind sspstrong uwtable
define dso_local ptr @migrate_get_current() #0 {
entry:
  %0 = load ptr, ptr @current_migration, align 8
  %tobool = icmp ne ptr %0, null
  br i1 %tobool, label %if.then, label %if.else

if.then:                                          ; preds = %entry
  br label %if.end

if.else:                                          ; preds = %entry
  call void @__assert_fail(ptr noundef @.str.5, ptr noundef @.str.2, i32 noundef 246, ptr noundef @__PRETTY_FUNCTION__.migrate_get_current) #13
  unreachable

if.end:                                           ; preds = %if.then
  %1 = load ptr, ptr @current_migration, align 8
  ret ptr %1
}

; Function Attrs: nounwind sspstrong uwtable
define dso_local void @qmp_migrate_continue(i32 noundef %state, ptr noundef %errp) #0 {
entry:
  %state.addr = alloca i32, align 4
  %errp.addr = alloca ptr, align 8
  %s = alloca ptr, align 8
  store i32 %state, ptr %state.addr, align 4
  store ptr %errp, ptr %errp.addr, align 8
  %call = call ptr @migrate_get_current()
  store ptr %call, ptr %s, align 8
  %0 = load ptr, ptr %s, align 8
  %state1 = getelementptr inbounds %struct.MigrationState, ptr %0, i32 0, i32 16
  %1 = load i32, ptr %state1, align 8
  %2 = load i32, ptr %state.addr, align 4
  %cmp = icmp ne i32 %1, %2
  br i1 %cmp, label %if.then, label %if.end

if.then:                                          ; preds = %entry
  %3 = load ptr, ptr %errp.addr, align 8
  %4 = load ptr, ptr %s, align 8
  %state2 = getelementptr inbounds %struct.MigrationState, ptr %4, i32 0, i32 16
  %5 = load i32, ptr %state2, align 8
  %call3 = call ptr @qapi_enum_lookup(ptr noundef @MigrationStatus_lookup, i32 noundef %5)
  call void (ptr, ptr, i32, ptr, ptr, ...) @error_setg_internal(ptr noundef %3, ptr noundef @.str.2, i32 noundef 2029, ptr noundef @__func__.qmp_migrate_continue, ptr noundef @.str.41, ptr noundef %call3)
  br label %return

if.end:                                           ; preds = %entry
  %6 = load ptr, ptr %s, align 8
  %pause_sem = getelementptr inbounds %struct.MigrationState, ptr %6, i32 0, i32 32
  call void @qemu_sem_post(ptr noundef %pause_sem)
  br label %return

return:                                           ; preds = %if.end, %if.then
  ret void
}