; Function Attrs: nounwind sspstrong uwtable
define dso_local void @qmp_migrate_continue(i32 noundef %state, ptr noundef %errp) local_unnamed_addr #0 {
entry:
  %0 = load ptr, ptr @current_migration, align 8
  %tobool.not.i = icmp eq ptr %0, null
  br i1 %tobool.not.i, label %if.else.i, label %migrate_get_current.exit

if.else.i:                                        ; preds = %entry
  tail call void @__assert_fail(ptr noundef nonnull @.str.5, ptr noundef nonnull @.str.2, i32 noundef 246, ptr noundef nonnull @__PRETTY_FUNCTION__.migrate_get_current) #20
  unreachable

migrate_get_current.exit:                         ; preds = %entry
  %state1 = getelementptr inbounds nuw i8, ptr %0, i64 776
  %1 = load i32, ptr %state1, align 8
  %cmp.not = icmp eq i32 %1, %state
  br i1 %cmp.not, label %if.end, label %if.then

if.then:                                          ; preds = %migrate_get_current.exit
  %call3 = tail call ptr @qapi_enum_lookup(ptr noundef nonnull @MigrationStatus_lookup, i32 noundef %1) #19
  tail call void (ptr, ptr, i32, ptr, ptr, ...) @error_setg_internal(ptr noundef %errp, ptr noundef nonnull @.str.2, i32 noundef 2029, ptr noundef nonnull @__func__.qmp_migrate_continue, ptr noundef nonnull @.str.41, ptr noundef %call3) #19
  br label %return

if.end:                                           ; preds = %migrate_get_current.exit
  %pause_sem = getelementptr inbounds nuw i8, ptr %0, i64 1232
  tail call void @qemu_sem_post(ptr noundef nonnull %pause_sem) #19
  br label %return

return:                                           ; preds = %if.end, %if.then
  ret void
}